; Function Attrs: nounwind uwtable
define noundef zeroext i1 @lv_rb_init(ptr noundef %0, ptr noundef %1, i64 noundef %2) local_unnamed_addr #0 {
  %.not = icmp eq ptr %0, null
  br i1 %.not, label %.preheader, label %4

.preheader:                                       ; preds = %3, %.preheader
  br label %.preheader

4:                                                ; preds = %3
  %.not18 = icmp eq ptr %1, null
  br i1 %.not18, label %.preheader20, label %5

.preheader20:                                     ; preds = %4, %.preheader20
  br label %.preheader20

5:                                                ; preds = %4
  %.not19 = icmp eq i64 %2, 0
  br i1 %.not19, label %.preheader21, label %6

.preheader21:                                     ; preds = %5, %.preheader21
  br label %.preheader21

6:                                                ; preds = %5
  tail call void @lv_memset(ptr noundef nonnull %0, i8 noundef zeroext 0, i64 noundef 24) #5
  store ptr null, ptr %0, align 8, !tbaa !3
  %7 = getelementptr inbounds nuw i8, ptr %0, i64 8
  store ptr %1, ptr %7, align 8, !tbaa !10
  %8 = getelementptr inbounds nuw i8, ptr %0, i64 16
  store i64 %2, ptr %8, align 8, !tbaa !11
  ret i1 true
}